Certificate:
    Data:
        Version: 3 (0x2)
        Serial Number: 1 (0x1)
        Signature Algorithm: sha256WithRSAEncryption
        Issuer: DC=org, DC=simple, O=Simple Inc, OU=Simple Root CA, CN=Simple Root CA
        Validity
            Not Before: Aug 12 19:01:11 2020 GMT
            Not After : Aug 12 19:01:11 2021 GMT
        Subject: DC=org, DC=simple, O=Simple Inc, OU=Simple Root CA, CN=Simple Root CA
        Subject Public Key Info:
            Public Key Algorithm: rsaEncryption
                RSA Public-Key: (2048 bit)
                Modulus:
                    00:bd:2e:d4:74:bc:16:08:4d:c3:6f:45:69:89:c2:
                    77:a4:86:74:91:22:b9:0d:ac:75:c1:1b:69:08:08:
                    c2:6e:63:9f:3d:72:08:72:cf:22:07:a2:07:94:79:
                    02:a0:5e:1d:e4:34:b9:2d:67:17:d5:ca:11:f2:d3:
                    fe:f6:24:82:b6:fb:13:d7:60:a2:5a:c5:f4:9c:ec:
                    24:ed:ac:0b:f7:29:34:f1:a3:3a:04:bf:72:cc:5d:
                    9c:9b:be:69:e1:1c:54:dc:7e:85:7b:92:2a:1c:63:
                    75:38:6c:81:db:a5:d4:a2:22:20:c6:94:87:87:70:
                    26:e6:23:ed:0c:30:c3:48:15:6d:93:5a:43:a1:b7:
                    f9:54:6c:d7:fd:25:93:ee:a3:c6:eb:7a:e9:e2:18:
                    ac:ef:bf:3c:fb:c1:82:20:9f:3d:f2:e0:84:90:b3:
                    93:51:76:74:ab:ee:ff:91:2f:15:07:de:0f:26:63:
                    2b:2f:4a:b1:1a:1f:2b:b5:65:17:18:60:78:22:10:
                    b2:aa:15:32:a7:ab:08:6c:d5:b9:d9:1c:af:a2:1a:
                    24:f9:28:09:a6:4a:3b:24:35:47:20:1c:47:d1:0c:
                    29:0e:0a:9d:15:78:a3:6d:77:c9:1c:fa:02:49:d3:
                    1a:be:55:19:4a:f1:61:f3:01:41:ed:f2:d4:04:20:
                    82:13
                Exponent: 65537 (0x10001)
        X509v3 extensions:
            X509v3 Key Usage: critical
                Certificate Sign, CRL Sign
            X509v3 Basic Constraints: critical
                CA:TRUE
            X509v3 Subject Key Identifier: 
                19:BB:ED:A5:C1:41:F1:37:97:C2:20:F4:2D:F2:A5:2D:84:AD:57:9B
            X509v3 Authority Key Identifier: 
                keyid:19:BB:ED:A5:C1:41:F1:37:97:C2:20:F4:2D:F2:A5:2D:84:AD:57:9B

    Signature Algorithm: sha256WithRSAEncryption
         79:fb:75:07:5c:8a:88:2d:73:50:27:d8:41:ee:b4:cc:17:8d:
         e6:ec:7d:24:03:a6:2f:3e:09:6a:63:f5:3e:3e:90:b8:3a:ad:
         b0:79:7b:07:33:c7:29:1d:d2:b2:5b:35:ee:e7:22:d3:4e:93:
         69:51:d7:75:e9:f3:bd:7e:16:5f:b2:65:ef:08:1a:b3:42:2e:
         81:20:c3:39:5b:e7:52:a5:f6:77:a7:08:40:96:79:ae:9e:85:
         37:87:5c:bb:b8:d2:7b:19:df:e7:b5:a5:bf:c5:0a:3c:60:c1:
         52:0c:15:06:ef:1f:e4:bd:9f:d9:1a:52:40:e7:77:75:69:b1:
         f4:8f:aa:15:26:9b:e0:5c:08:cf:dc:2e:cc:3b:90:ae:9d:14:
         e3:b4:eb:06:9e:a1:58:8f:1b:af:85:04:7f:82:85:9a:2f:9e:
         59:c0:ae:63:21:ca:84:2f:7a:a5:9a:f3:fb:e9:97:73:c9:06:
         c2:39:e9:3c:20:01:8b:50:d7:9d:9a:fe:c2:0b:e5:83:44:15:
         f7:c4:07:f4:ef:b2:72:c5:9d:83:7a:e8:5f:6d:82:e4:59:24:
         55:84:0b:e9:4c:4d:1b:a6:16:6b:46:84:f7:b3:36:0f:f9:c1:
         8b:aa:e2:59:97:ef:69:56:48:e9:4b:92:5c:3b:a8:d4:fa:6e:
         c6:df:ac:f4
-----BEGIN CERTIFICATE-----
MIIDxjCCAq6gAwIBAgIBATANBgkqhkiG9w0BAQsFADB0MRMwEQYKCZImiZPyLGQB
GRYDb3JnMRYwFAYKCZImiZPyLGQBGRYGc2ltcGxlMRMwEQYDVQQKDApTaW1wbGUg
SW5jMRcwFQYDVQQLDA5TaW1wbGUgUm9vdCBDQTEXMBUGA1UEAwwOU2ltcGxlIFJv
b3QgQ0EwHhcNMjAwODEyMTkwMTExWhcNMjEwODEyMTkwMTExWjB0MRMwEQYKCZIm
iZPyLGQBGRYDb3JnMRYwFAYKCZImiZPyLGQBGRYGc2ltcGxlMRMwEQYDVQQKDApT
aW1wbGUgSW5jMRcwFQYDVQQLDA5TaW1wbGUgUm9vdCBDQTEXMBUGA1UEAwwOU2lt
cGxlIFJvb3QgQ0EwggEiMA0GCSqGSIb3DQEBAQUAA4IBDwAwggEKAoIBAQC9LtR0
vBYITcNvRWmJwnekhnSRIrkNrHXBG2kICMJuY589cghyzyIHogeUeQKgXh3kNLkt
ZxfVyhHy0/72JIK2+xPXYKJaxfSc7CTtrAv3KTTxozoEv3LMXZybvmnhHFTcfoV7
kiocY3U4bIHbpdSiIiDGlIeHcCbmI+0MMMNIFW2TWkOht/lUbNf9JZPuo8breuni
GKzvvzz7wYIgnz3y4ISQs5NRdnSr7v+RLxUH3g8mYysvSrEaHyu1ZRcYYHgiELKq
FTKnqwhs1bnZHK+iGiT5KAmmSjskNUcgHEfRDCkOCp0VeKNtd8kc+gJJ0xq+VRlK
8WHzAUHt8tQEIIITAgMBAAGjYzBhMA4GA1UdDwEB/wQEAwIBBjAPBgNVHRMBAf8E
BTADAQH/MB0GA1UdDgQWBBQZu+2lwUHxN5fCIPQt8qUthK1XmzAfBgNVHSMEGDAW
gBQZu+2lwUHxN5fCIPQt8qUthK1XmzANBgkqhkiG9w0BAQsFAAOCAQEAeft1B1yK
iC1zUCfYQe60zBeN5ux9JAOmLz4JamP1Pj6QuDqtsHl7BzPHKR3Ssls17uci006T
aVHXdenzvX4WX7Jl7wgas0IugSDDOVvnUqX2d6cIQJZ5rp6FN4dcu7jSexnf57Wl
v8UKPGDBUgwVBu8f5L2f2RpSQOd3dWmx9I+qFSab4FwIz9wuzDuQrp0U47TrBp6h
WI8br4UEf4KFmi+eWcCuYyHKhC96pZrz++mXc8kGwjnpPCABi1DXnZr+wgvlg0QV
98QH9O+ycsWdg3roX22C5FkkVYQL6UxNG6YWa0aE97M2D/nBi6riWZfvaVZI6UuS
XDuo1Ppuxt+s9A==
-----END CERTIFICATE-----
Certificate:
    Data:
        Version: 3 (0x2)
        Serial Number: 2 (0x2)
        Signature Algorithm: sha256WithRSAEncryption
        Issuer: DC=org, DC=simple, O=Simple Inc, OU=Simple Root CA, CN=Simple Root CA
        Validity
            Not Before: Aug 12 19:01:26 2020 GMT
            Not After : Aug 12 19:01:26 2021 GMT
        Subject: DC=org, DC=simple, O=Simple Inc, OU=Simple Signing CA, CN=Simple Signing CA
        Subject Public Key Info:
            Public Key Algorithm: rsaEncryption
                RSA Public-Key: (2048 bit)
                Modulus:
                    00:d4:78:60:ac:80:32:cb:49:5a:99:de:06:a5:40:
                    c5:cf:9d:83:d5:99:6f:c6:a0:2d:43:88:60:c2:df:
                    07:45:fd:83:3f:e2:75:d2:b2:fa:f1:19:ec:76:7d:
                    3e:6a:a5:d6:24:71:4c:fd:dc:8d:47:83:94:2a:8d:
                    bc:37:ec:2c:b2:56:9b:72:65:fe:ed:a2:20:2e:e8:
                    24:0c:43:3c:b8:98:cc:3e:a4:43:83:cf:37:41:d3:
                    48:0c:1c:3e:09:11:86:d7:14:e1:7f:34:d3:b8:fe:
                    dc:88:da:09:ea:0b:42:85:f1:cb:90:c3:be:87:d7:
                    af:6e:67:40:0e:f5:14:61:8c:0c:ee:68:14:88:5c:
                    58:02:9c:94:ca:d6:ca:ce:60:78:dc:14:6e:e7:71:
                    f3:e7:d9:9e:58:09:bf:21:6f:80:d6:f2:52:f1:3a:
                    84:14:de:51:2c:ff:ad:28:c5:68:e2:61:34:97:44:
                    b7:4d:22:2f:26:93:77:21:83:58:cb:f3:ac:d6:5d:
                    50:5a:00:92:52:91:a9:c2:b7:37:36:cc:f3:e4:22:
                    0b:d3:00:8d:9f:b9:eb:56:84:25:fc:2c:e2:b6:12:
                    be:b0:61:e8:58:c2:39:cb:12:eb:bf:49:1d:36:c0:
                    5c:97:4f:04:46:a0:1f:a4:5e:64:cb:96:1c:cc:3e:
                    73:cf
                Exponent: 65537 (0x10001)
        X509v3 extensions:
            X509v3 Key Usage: critical
                Certificate Sign, CRL Sign
            X509v3 Basic Constraints: critical
                CA:TRUE, pathlen:0
            X509v3 Subject Key Identifier: 
                3D:EE:8B:FC:81:38:23:57:55:B9:4B:1F:12:73:C1:06:D3:9A:EC:06
            X509v3 Authority Key Identifier: 
                keyid:19:BB:ED:A5:C1:41:F1:37:97:C2:20:F4:2D:F2:A5:2D:84:AD:57:9B

    Signature Algorithm: sha256WithRSAEncryption
         83:cd:7a:f0:bc:13:57:73:0a:eb:13:f0:00:4c:aa:3f:47:3a:
         c7:a7:ca:83:12:91:12:77:e8:20:54:19:4c:5c:4c:bc:eb:56:
         24:c9:b6:c9:10:d2:f9:20:2a:6d:a7:b9:8f:07:af:fb:72:5a:
         a9:a1:b1:0a:d7:b6:2c:5a:d1:bf:57:c6:70:4c:88:a7:3d:ee:
         62:6f:88:8c:1f:d8:b7:45:37:4e:f3:7f:94:fa:7e:af:a0:cc:
         20:7a:04:7a:09:2a:89:3a:36:89:46:48:74:2d:e7:f0:74:82:
         46:31:f3:0e:b6:20:fd:d5:38:bf:36:85:46:d1:e0:bb:ac:93:
         99:fc:1b:74:a0:35:9d:71:f0:75:77:dd:a1:d7:2c:bd:d6:b7:
         94:1d:c3:68:04:e9:10:85:80:a1:ac:8c:f6:ac:28:77:6b:da:
         22:35:e9:c1:e0:7d:8e:29:0d:11:bc:60:c0:5a:5e:eb:6f:c3:
         ba:49:b3:72:73:81:b6:18:3c:30:61:34:8a:83:54:55:1c:12:
         6d:d4:c1:d0:b8:bf:d6:7b:a1:82:25:48:ba:29:31:26:8a:7e:
         74:af:3b:08:bd:55:25:b0:b9:32:98:25:7f:a6:ca:13:a1:1c:
         9b:7e:40:9a:2f:ba:b0:17:4f:32:16:df:b2:86:d4:e3:33:f2:
         a7:0e:71:3e
-----BEGIN CERTIFICATE-----
MIIDzzCCAregAwIBAgIBAjANBgkqhkiG9w0BAQsFADB0MRMwEQYKCZImiZPyLGQB
GRYDb3JnMRYwFAYKCZImiZPyLGQBGRYGc2ltcGxlMRMwEQYDVQQKDApTaW1wbGUg
SW5jMRcwFQYDVQQLDA5TaW1wbGUgUm9vdCBDQTEXMBUGA1UEAwwOU2ltcGxlIFJv
b3QgQ0EwHhcNMjAwODEyMTkwMTI2WhcNMjEwODEyMTkwMTI2WjB6MRMwEQYKCZIm
iZPyLGQBGRYDb3JnMRYwFAYKCZImiZPyLGQBGRYGc2ltcGxlMRMwEQYDVQQKDApT
aW1wbGUgSW5jMRowGAYDVQQLDBFTaW1wbGUgU2lnbmluZyBDQTEaMBgGA1UEAwwR
U2ltcGxlIFNpZ25pbmcgQ0EwggEiMA0GCSqGSIb3DQEBAQUAA4IBDwAwggEKAoIB
AQDUeGCsgDLLSVqZ3galQMXPnYPVmW/GoC1DiGDC3wdF/YM/4nXSsvrxGex2fT5q
pdYkcUz93I1Hg5Qqjbw37CyyVptyZf7toiAu6CQMQzy4mMw+pEODzzdB00gMHD4J
EYbXFOF/NNO4/tyI2gnqC0KF8cuQw76H169uZ0AO9RRhjAzuaBSIXFgCnJTK1srO
YHjcFG7ncfPn2Z5YCb8hb4DW8lLxOoQU3lEs/60oxWjiYTSXRLdNIi8mk3chg1jL
86zWXVBaAJJSkanCtzc2zPPkIgvTAI2fuetWhCX8LOK2Er6wYehYwjnLEuu/SR02
wFyXTwRGoB+kXmTLlhzMPnPPAgMBAAGjZjBkMA4GA1UdDwEB/wQEAwIBBjASBgNV
HRMBAf8ECDAGAQH/AgEAMB0GA1UdDgQWBBQ97ov8gTgjV1W5Sx8Sc8EG05rsBjAf
BgNVHSMEGDAWgBQZu+2lwUHxN5fCIPQt8qUthK1XmzANBgkqhkiG9w0BAQsFAAOC
AQEAg8168LwTV3MK6xPwAEyqP0c6x6fKgxKREnfoIFQZTFxMvOtWJMm2yRDS+SAq
bae5jwev+3JaqaGxCte2LFrRv1fGcEyIpz3uYm+IjB/Yt0U3TvN/lPp+r6DMIHoE
egkqiTo2iUZIdC3n8HSCRjHzDrYg/dU4vzaFRtHgu6yTmfwbdKA1nXHwdXfdodcs
vda3lB3DaATpEIWAoayM9qwod2vaIjXpweB9jikNEbxgwFpe62/DukmzcnOBthg8
MGE0ioNUVRwSbdTB0Li/1nuhgiVIuikxJop+dK87CL1VJbC5Mpglf6bKE6Ecm35A
mi+6sBdPMhbfsobU4zPypw5xPg==
-----END CERTIFICATE-----
