Certificate:
    Data:
        Version: 3 (0x2)
        Serial Number: 1 (0x1)
        Signature Algorithm: sha256WithRSAEncryption
        Issuer: DC=org, DC=simple, O=Simple Inc, OU=Simple Root CA, CN=Simple Root CA
        Validity
            Not Before: May 26 14:02:30 2020 GMT
            Not After : May 26 14:02:30 2021 GMT
        Subject: DC=org, DC=simple, O=Simple Inc, OU=Simple Root CA, CN=Simple Root CA
        Subject Public Key Info:
            Public Key Algorithm: rsaEncryption
                RSA Public-Key: (2048 bit)
                Modulus:
                    00:cf:1f:80:11:25:0f:18:7d:af:2a:f7:bd:f8:8e:
                    b4:e5:7a:43:09:79:31:e3:c9:85:dc:bf:05:d9:31:
                    f8:d6:ec:45:fc:98:32:3d:75:66:1d:49:95:15:97:
                    9c:7a:b1:ef:8c:03:86:33:b5:c2:34:4d:43:6b:f5:
                    71:a0:41:16:ef:66:e2:8b:95:fe:64:8e:18:b6:41:
                    8b:7a:7c:2e:11:81:22:3e:9f:61:1a:fc:64:52:7f:
                    af:dd:14:9a:22:7e:a2:cd:7f:77:ae:87:c5:60:94:
                    4a:f5:2d:fd:df:f1:2d:6c:8c:46:1c:08:79:fa:17:
                    9d:98:35:30:9e:30:00:f0:24:aa:18:78:d6:50:f9:
                    52:61:6b:fa:a9:c7:ee:47:1a:02:42:0a:40:db:fe:
                    60:6f:c5:02:84:13:9a:4a:82:80:e8:72:f4:60:68:
                    5a:71:94:6b:46:39:36:48:92:aa:fd:19:ef:87:52:
                    ae:1d:39:35:ba:d9:1a:38:55:5c:25:a8:52:b3:67:
                    e4:aa:ee:c8:51:65:be:b9:a2:4c:63:00:95:48:05:
                    d6:84:36:52:cd:57:61:f0:5a:ef:5b:ba:6b:79:16:
                    fa:37:66:46:7a:8a:34:02:54:2f:47:8b:88:c8:db:
                    2c:aa:11:a4:26:fa:ce:55:43:6a:96:4a:1a:ec:94:
                    31:15
                Exponent: 65537 (0x10001)
        X509v3 extensions:
            X509v3 Key Usage: critical
                Certificate Sign, CRL Sign
            X509v3 Basic Constraints: critical
                CA:TRUE
            X509v3 Subject Key Identifier: 
                39:DF:1D:04:35:CB:A6:89:91:0C:1B:63:41:F5:8E:4D:EE:35:14:25
            X509v3 Authority Key Identifier: 
                keyid:39:DF:1D:04:35:CB:A6:89:91:0C:1B:63:41:F5:8E:4D:EE:35:14:25

    Signature Algorithm: sha256WithRSAEncryption
         66:6e:ca:e1:66:b0:b5:ca:50:d5:18:01:b2:08:60:1d:3a:9d:
         b6:e6:b5:65:6f:6f:19:d1:cf:10:56:4e:3c:f9:8c:89:b6:76:
         80:40:10:2d:c0:8c:00:5e:b4:bb:2e:c2:c1:6e:20:f6:43:35:
         29:1d:1e:4a:a4:1b:48:46:df:33:25:51:2e:be:51:03:61:26:
         17:06:22:b9:82:8a:16:47:5a:c8:cc:1e:6e:cb:42:61:d7:29:
         5f:c2:25:e9:f8:15:75:05:40:1a:6f:fd:4a:cd:b6:61:9e:1e:
         80:bf:ab:4b:bb:8b:dd:0d:db:6d:c5:f0:35:79:11:a8:72:7b:
         97:e5:86:5c:c3:61:d8:60:71:f3:c6:eb:14:aa:07:e0:9c:2c:
         0e:31:25:13:f9:8b:83:8e:88:d6:28:86:e0:db:51:5b:29:be:
         e2:1b:ef:9a:6b:82:ea:28:10:b6:02:6a:89:42:2c:3c:9e:50:
         52:79:15:74:21:25:52:49:e5:79:76:e9:25:5e:fe:f8:e7:14:
         f0:c7:4a:92:4b:b8:b5:8b:96:1c:78:e0:91:43:01:14:00:a9:
         59:04:87:48:5c:a0:e8:0e:44:51:17:bb:a7:57:e7:41:b9:47:
         d7:a3:4c:cb:f0:08:1b:f2:1f:01:20:92:b7:90:b4:d5:ce:6b:
         3a:3b:4e:ae
-----BEGIN CERTIFICATE-----
MIIDxjCCAq6gAwIBAgIBATANBgkqhkiG9w0BAQsFADB0MRMwEQYKCZImiZPyLGQB
GRYDb3JnMRYwFAYKCZImiZPyLGQBGRYGc2ltcGxlMRMwEQYDVQQKDApTaW1wbGUg
SW5jMRcwFQYDVQQLDA5TaW1wbGUgUm9vdCBDQTEXMBUGA1UEAwwOU2ltcGxlIFJv
b3QgQ0EwHhcNMjAwNTI2MTQwMjMwWhcNMjEwNTI2MTQwMjMwWjB0MRMwEQYKCZIm
iZPyLGQBGRYDb3JnMRYwFAYKCZImiZPyLGQBGRYGc2ltcGxlMRMwEQYDVQQKDApT
aW1wbGUgSW5jMRcwFQYDVQQLDA5TaW1wbGUgUm9vdCBDQTEXMBUGA1UEAwwOU2lt
cGxlIFJvb3QgQ0EwggEiMA0GCSqGSIb3DQEBAQUAA4IBDwAwggEKAoIBAQDPH4AR
JQ8Yfa8q9734jrTlekMJeTHjyYXcvwXZMfjW7EX8mDI9dWYdSZUVl5x6se+MA4Yz
tcI0TUNr9XGgQRbvZuKLlf5kjhi2QYt6fC4RgSI+n2Ea/GRSf6/dFJoifqLNf3eu
h8VglEr1Lf3f8S1sjEYcCHn6F52YNTCeMADwJKoYeNZQ+VJha/qpx+5HGgJCCkDb
/mBvxQKEE5pKgoDocvRgaFpxlGtGOTZIkqr9Ge+HUq4dOTW62Ro4VVwlqFKzZ+Sq
7shRZb65okxjAJVIBdaENlLNV2HwWu9bumt5Fvo3ZkZ6ijQCVC9Hi4jI2yyqEaQm
+s5VQ2qWShrslDEVAgMBAAGjYzBhMA4GA1UdDwEB/wQEAwIBBjAPBgNVHRMBAf8E
BTADAQH/MB0GA1UdDgQWBBQ53x0ENcumiZEMG2NB9Y5N7jUUJTAfBgNVHSMEGDAW
gBQ53x0ENcumiZEMG2NB9Y5N7jUUJTANBgkqhkiG9w0BAQsFAAOCAQEAZm7K4Waw
tcpQ1RgBsghgHTqdtua1ZW9vGdHPEFZOPPmMibZ2gEAQLcCMAF60uy7CwW4g9kM1
KR0eSqQbSEbfMyVRLr5RA2EmFwYiuYKKFkdayMwebstCYdcpX8Il6fgVdQVAGm/9
Ss22YZ4egL+rS7uL3Q3bbcXwNXkRqHJ7l+WGXMNh2GBx88brFKoH4JwsDjElE/mL
g46I1iiG4NtRWym+4hvvmmuC6igQtgJqiUIsPJ5QUnkVdCElUknleXbpJV7++OcU
8MdKkku4tYuWHHjgkUMBFACpWQSHSFyg6A5EURe7p1fnQblH16NMy/AIG/IfASCS
t5C01c5rOjtOrg==
-----END CERTIFICATE-----
Certificate:
    Data:
        Version: 3 (0x2)
        Serial Number: 2 (0x2)
        Signature Algorithm: sha256WithRSAEncryption
        Issuer: DC=org, DC=simple, O=Simple Inc, OU=Simple Root CA, CN=Simple Root CA
        Validity
            Not Before: May 26 14:02:42 2020 GMT
            Not After : May 26 14:02:42 2021 GMT
        Subject: DC=org, DC=simple, O=Simple Inc, OU=Simple Signing CA, CN=Simple Signing CA
        Subject Public Key Info:
            Public Key Algorithm: rsaEncryption
                RSA Public-Key: (2048 bit)
                Modulus:
                    00:d2:2f:a5:83:d9:f9:60:1c:b0:36:7e:11:78:7e:
                    e9:79:f2:80:9e:0e:0b:6a:6b:05:bc:3b:79:cd:8b:
                    af:6f:fc:79:60:bd:2e:e0:c5:a3:e6:b0:0a:9f:34:
                    73:71:ee:d8:ce:6f:3a:36:d6:54:47:87:79:13:a7:
                    bd:a2:e7:14:9a:ab:47:86:2f:c6:01:0d:37:3c:c5:
                    d3:6c:74:96:d3:74:7f:29:1e:b2:46:23:81:15:c2:
                    bc:75:ed:09:f3:ff:3f:44:ae:36:92:4f:31:6a:c8:
                    4c:62:09:9a:0d:16:f8:da:bb:86:42:51:2e:5c:05:
                    61:55:0d:df:4c:c7:93:32:b6:1e:51:12:be:7f:b1:
                    de:12:fb:fb:99:1d:65:2c:d5:09:4c:1a:77:d3:b9:
                    aa:b1:94:d3:ae:2a:41:e6:0d:94:9c:59:e8:bc:8b:
                    30:1f:3a:65:68:f2:e8:b4:15:6b:aa:8c:60:20:45:
                    ad:a4:96:aa:14:b6:6b:d0:d7:b3:6a:c9:85:9f:eb:
                    ef:89:6e:c4:ee:b0:4a:53:be:68:d3:a4:2f:2b:ec:
                    d8:fa:60:16:cd:f3:28:d5:a5:08:2b:92:1a:e4:8d:
                    08:7a:10:af:75:b4:7d:af:5e:e2:3f:09:ea:6e:2a:
                    37:06:be:5f:53:2a:7c:72:f4:5b:b8:ad:9a:ab:9c:
                    81:cb
                Exponent: 65537 (0x10001)
        X509v3 extensions:
            X509v3 Key Usage: critical
                Certificate Sign, CRL Sign
            X509v3 Basic Constraints: critical
                CA:TRUE, pathlen:0
            X509v3 Subject Key Identifier: 
                2C:7C:CB:71:C1:6A:24:B8:DC:14:76:4F:42:93:69:25:03:31:28:B0
            X509v3 Authority Key Identifier: 
                keyid:39:DF:1D:04:35:CB:A6:89:91:0C:1B:63:41:F5:8E:4D:EE:35:14:25

    Signature Algorithm: sha256WithRSAEncryption
         41:dd:9b:49:58:03:10:79:6b:88:f4:f1:d5:75:f5:14:15:60:
         82:1a:c3:81:12:cc:68:d6:07:d8:c1:44:45:9e:76:79:94:d8:
         3f:d8:f3:ed:cb:c2:dc:e6:78:06:70:16:a0:38:cf:8d:32:41:
         7b:cb:5b:7d:9b:a7:56:0b:85:34:d7:0f:b5:f9:b3:cb:34:9d:
         09:0e:2e:4e:67:7e:76:4e:74:35:ec:d7:58:45:f7:1d:92:c4:
         bc:b9:a7:e7:eb:dd:62:9e:75:5e:f5:97:0a:bd:b5:66:d0:b6:
         9b:af:63:13:c2:70:56:bf:9b:50:cc:9b:d9:55:ca:3a:75:0a:
         c7:de:46:d8:e3:c8:76:3e:ef:27:28:e9:59:f7:42:70:a5:44:
         07:21:1d:d3:c3:87:5f:f8:f0:4c:60:8a:e1:ff:6c:b6:03:bc:
         9a:cc:38:7e:c2:6d:08:95:6d:f6:0f:a7:24:da:2c:87:26:b0:
         89:93:24:3e:e1:6a:f8:b1:ac:0b:b9:ee:b9:13:9e:9c:bd:a2:
         8b:c7:39:54:ff:d1:98:19:fd:04:41:e3:ad:4a:37:f2:38:80:
         c1:b6:e0:99:de:96:23:bc:72:f8:70:10:23:b4:f4:75:8a:7c:
         4e:ff:7e:02:07:a3:42:6e:35:06:42:54:6a:4c:89:2c:96:7f:
         57:4c:ae:06
-----BEGIN CERTIFICATE-----
MIIDzzCCAregAwIBAgIBAjANBgkqhkiG9w0BAQsFADB0MRMwEQYKCZImiZPyLGQB
GRYDb3JnMRYwFAYKCZImiZPyLGQBGRYGc2ltcGxlMRMwEQYDVQQKDApTaW1wbGUg
SW5jMRcwFQYDVQQLDA5TaW1wbGUgUm9vdCBDQTEXMBUGA1UEAwwOU2ltcGxlIFJv
b3QgQ0EwHhcNMjAwNTI2MTQwMjQyWhcNMjEwNTI2MTQwMjQyWjB6MRMwEQYKCZIm
iZPyLGQBGRYDb3JnMRYwFAYKCZImiZPyLGQBGRYGc2ltcGxlMRMwEQYDVQQKDApT
aW1wbGUgSW5jMRowGAYDVQQLDBFTaW1wbGUgU2lnbmluZyBDQTEaMBgGA1UEAwwR
U2ltcGxlIFNpZ25pbmcgQ0EwggEiMA0GCSqGSIb3DQEBAQUAA4IBDwAwggEKAoIB
AQDSL6WD2flgHLA2fhF4ful58oCeDgtqawW8O3nNi69v/HlgvS7gxaPmsAqfNHNx
7tjObzo21lRHh3kTp72i5xSaq0eGL8YBDTc8xdNsdJbTdH8pHrJGI4EVwrx17Qnz
/z9ErjaSTzFqyExiCZoNFvjau4ZCUS5cBWFVDd9Mx5Myth5REr5/sd4S+/uZHWUs
1QlMGnfTuaqxlNOuKkHmDZScWei8izAfOmVo8ui0FWuqjGAgRa2klqoUtmvQ17Nq
yYWf6++JbsTusEpTvmjTpC8r7Nj6YBbN8yjVpQgrkhrkjQh6EK91tH2vXuI/Cepu
KjcGvl9TKnxy9Fu4rZqrnIHLAgMBAAGjZjBkMA4GA1UdDwEB/wQEAwIBBjASBgNV
HRMBAf8ECDAGAQH/AgEAMB0GA1UdDgQWBBQsfMtxwWokuNwUdk9Ck2klAzEosDAf
BgNVHSMEGDAWgBQ53x0ENcumiZEMG2NB9Y5N7jUUJTANBgkqhkiG9w0BAQsFAAOC
AQEAQd2bSVgDEHlriPTx1XX1FBVgghrDgRLMaNYH2MFERZ52eZTYP9jz7cvC3OZ4
BnAWoDjPjTJBe8tbfZunVguFNNcPtfmzyzSdCQ4uTmd+dk50NezXWEX3HZLEvLmn
5+vdYp51XvWXCr21ZtC2m69jE8JwVr+bUMyb2VXKOnUKx95G2OPIdj7vJyjpWfdC
cKVEByEd08OHX/jwTGCK4f9stgO8msw4fsJtCJVt9g+nJNoshyawiZMkPuFq+LGs
C7nuuROenL2ii8c5VP/RmBn9BEHjrUo38jiAwbbgmd6WI7xy+HAQI7T0dYp8Tv9+
AgejQm41BkJUakyJLJZ/V0yuBg==
-----END CERTIFICATE-----
